MPASM 5.84                    FATIHAYDIN.ASM   11-16-2019  18:03:15         PAGE  1


LOC  OBJECT CODE     LINE SOURCE TEXT
  VALUE

                      00001     list p = 16f877a
                      00002     #include<p16f877.inc>
                      00001         LIST
                      00002 
                      00003 ;==========================================================================
                      00004 ; Build date : Mar 17 2019
                      00005 ;  MPASM PIC16F877 processor include
                      00006 ; 
                      00007 ;  (c) Copyright 1999-2019 Microchip Technology, All rights reserved
                      00008 ;==========================================================================
                      00009 
Message[301]: MESSAGE: (Processor-header file mismatch.  Verify selected processor.)
                      00541         LIST
                      00003     
                      00004         ;GECIKME DEGISKENLERI
Warning[207]: Found label after column 1. (GECIKME1)
  00000020            00005         GECIKME1    EQU 0x20            ;1.GECIKME ICIK
Warning[207]: Found label after column 1. (GECIKME2)
  00000021            00006         GECIKME2    EQU 0x21            ;2.GECIKME ICIN
Warning[207]: Found label after column 1. (GECIKME3)
  00000022            00007         GECIKME3    EQU 0x22            ;3.GECIKME ICIN
                      00008         
                      00009         ;LCD DEGISKENLERI
Warning[207]: Found label after column 1. (VERI4)
  00000023            00010         VERI4         EQU       0X23            ;VERININ EN DUSUK 4 BITI
Warning[207]: Found label after column 1. (SAYAC)
  00000024            00011         SAYAC         EQU       0X24            ;DATA TABLE ICIN SAYAC
Warning[207]: Found label after column 1. (LCD_TEMP)
  00000025            00012         LCD_TEMP    EQU 0X25            ;LCD TEMP DEGIS.
Warning[207]: Found label after column 1. (LCD_TRIS)
  00000086            00013         LCD_TRIS    EQU TRISB           ;TRISB - TEMSILI
Warning[207]: Found label after column 1. (LCD_PORT)
  00000006            00014         LCD_PORT    EQU PORTB           ;PORTB - TEMSILI
                      00015         
Warning[207]: Found label after column 1. (LCD_RS)
  00000004            00016         LCD_RS      EQU     4                   ;RS BITININ TEMSILI
Warning[207]: Found label after column 1. (LCD_E)
  00000005            00017         LCD_E       EQU     5                   ;ENABLE BITI TEMSIL
                      00018             
0000                  00019         ORG 0X000
0000   0000           00020         NOP
0001   283E           00021         GOTO BASLA
                      00022         
Warning[207]: Found label after column 1. (DUSEN_KENAR)
0002                  00023         DUSEN_KENAR
0002   1283 1303      00024             BANKSEL     LCD_PORT                ;BANK0 SEC.
0004   1686           00025             BSF         LCD_PORT,LCD_E  ;ONCE E UCUNU 1 YAP
0005   2064           00026             CALL        GECIKME_200USN  ;GECIKMEYE GIT
0006   1286           00027             BCF         LCD_PORT,LCD_E  ;E UCUNU 0 YAP KI UYAR
0007   0008           00028             RETURN
                      00029             
Warning[207]: Found label after column 1. (KOMUT4_GONDER)
0008                  00030         KOMUT4_GONDER
MPASM 5.84                    FATIHAYDIN.ASM   11-16-2019  18:03:15         PAGE  2


LOC  OBJECT CODE     LINE SOURCE TEXT
  VALUE

0008   390F           00031             ANDLW       0x0F                    ;WREG 'TEN GELEN VERININ EN DUSUK 4 BITINI AL.
0009   00A3           00032             MOVWF       VERI4                   ;BU 4 BITLIK PAKETI VERI DEGISKENINE AT.
                      00033 
000A   0806           00034             MOVFW       LCD_PORT                ;PORTB 'DEKI DEGERI WREG 'E YAZ. 
000B   39F0           00035             ANDLW       0xF0                    ;PORTB 'DEKI EN DEGERLI 4BITI AL (AYAR BITLERI)
                      00036         
000C   0423           00037             IORWF       VERI4,W         ;WREG LSB4 + PORTB MSB4 IKI PAKETI BIRLESTIR    
000D   0086           00038             MOVWF       LCD_PORT                ;BIRLESTIRDIGIN PAKETLERI PORTB 'YE ATA.
                      00039         
000E   2002           00040             CALL        DUSEN_KENAR             ;BU ISLEMLER ICIN ENABLE BITINI DURTMEN GEREKIR
000F   2064           00041             CALL        GECIKME_200USN  ;100MIKROSANIYE GECIKME
0010   0008           00042             RETURN
                      00043             
Warning[207]: Found label after column 1. (KOMUT_GONDER)
0011                  00044         KOMUT_GONDER
                      00045             ;2 ASAMADA GONDERME YAPMAK - ICIN BU METOD KULLANILIR.
                      00046         
0011   00A5           00047             MOVWF       LCD_TEMP                ; ONCE GONDERILECEK VERIYI SAKLA
0012   0E25           00048             SWAPF       LCD_TEMP,W              ; GONDERILECEK VERININ ILK DOR VE SON DORT BITINI YER DE
                            GISTIR
                      00049 
0013   1283 1303      00050             BANKSEL     LCD_PORT                ; BANK0 'A GEC
0015   1206           00051             BCF         LCD_PORT,LCD_RS ; RS UCUNU 0 A CEK VE KOMUT GONDERECEGINI SOYLE
                      00052 
0016   2008           00053             CALL        KOMUT4_GONDER   ; BU EN DEGERLIKLI 4 BITI YOLLA
                      00054 
0017   0825           00055             MOVF        LCD_TEMP,W              ; SIMDI EN DEGERLIKSIZ 4 U GONDER
0018   1206           00056             BCF         LCD_PORT,LCD_RS ; RS UCUNU 0 A CEK VE KOMUT GONDERECEGINI SOYLE
0019   2008           00057             CALL        KOMUT4_GONDER
                      00058         
001A   0008           00059             RETURN
                      00060             
Warning[207]: Found label after column 1. (KARAKTER_GONDER)
001B                  00061         KARAKTER_GONDER
001B   00A5           00062             MOVWF       LCD_TEMP                ; GELEN VERI ICIN SWAP ISLEMI YAPILACAGINDAN KORU
001C   0E25           00063             SWAPF       LCD_TEMP,W              ; EN DEGERLIKLI BITLER ICIN SWAP YAP
001D   1283 1303      00064             BANKSEL     LCD_PORT                ; BANK0 A GECIYORUZ.
001F   1606           00065             BSF         LCD_PORT,LCD_RS ; KARAKTER YAZMA ICIN RS=1
0020   2008           00066             CALL        KOMUT4_GONDER   ; 4 BIT MODUNDA KARAKTERI GONDER
0021   0825           00067             MOVF        LCD_TEMP,W              ; SIMDI NORMAL DUSUK DEGERLIKLI BITLERI GONDER
0022   2008           00068             CALL        KOMUT4_GONDER
0023   0008           00069             RETURN
                      00070 
Warning[207]: Found label after column 1. (LCD_AYARLA)
0024                  00071         LCD_AYARLA
0024   3000           00072             MOVLW 0X00
0025   00A4           00073             MOVWF SAYAC                 ;DATA TABLE 0'DAN BASLAMALIDIR...
                      00074         
0026   1683 1303      00075             BANKSEL     LCD_TRIS                ;BANK1 SECIYORUZ.
Message[302]: Register in operand not in bank 0.  Ensure that bank bits are correct.
0028   0186           00076             CLRF        LCD_TRIS                ;B PORTUNU TAMAMEN CIKIS YAP.
                      00077 
0029   1283 1303      00078             BANKSEL     LCD_PORT                ;BANK0 SECIYORUZ.
MPASM 5.84                    FATIHAYDIN.ASM   11-16-2019  18:03:15         PAGE  3


LOC  OBJECT CODE     LINE SOURCE TEXT
  VALUE

002B   2072           00079             CALL        GECIKME_50MSN   ;ACILIS ICIN 50MS BEKLE.
002C   1206           00080             BCF         LCD_PORT,LCD_RS ;RS BITINI 0 YAP (KOMUT)        
                      00081 
                      00082                     
                      00083             ;GONDERECEGIMIZ KOMUTLAR
002D   3003           00084             MOVLW       0x03                    ;0X03 GONDERMEMIZ GEREK.
002E   2011           00085             CALL        KOMUT_GONDER            ;KOMUTU GONDERIYORUZ
002F   2069           00086             CALL        GECIKME_5MSN            ;5MS BEKLIYORUZ.
                      00087             
0030   3002           00088             MOVLW       0x02                    ;0X02 GONDERMEMIZ GEREK.
0031   2011           00089             CALL        KOMUT_GONDER            ;KOMUTU GONDERIYORUZ
0032   2064           00090             CALL        GECIKME_200USN  ;BIRAZ BEKLIYORUZ.
                      00091             
0033   3028           00092             MOVLW       0x28
0034   2011           00093             CALL        KOMUT_GONDER
                      00094 
0035   3010           00095             MOVLW       0x10    
0036   2011           00096             CALL        KOMUT_GONDER
                      00097 
0037   3001           00098             MOVLW       0x01
0038   2011           00099             CALL        KOMUT_GONDER
                      00100 
0039   3006           00101             MOVLW       0x06
003A   2011           00102             CALL        KOMUT_GONDER
                      00103 
003B   300D           00104             MOVLW       0x0D
003C   2011           00105             CALL        KOMUT_GONDER
                      00106            
003D   0008           00107             RETURN
                      00108             
Warning[207]: Found label after column 1. (BASLA)
003E                  00109         BASLA
003E   2024           00110             CALL        LCD_AYARLA
                      00111             
                      00112 
Warning[207]: Found label after column 1. (DDR)
003F                  00113         DDR
003F   0824           00114             MOVFW SAYAC
0040   2054           00115             CALL  DATA_TABLE
0041   1903           00116             BTFSC STATUS,Z
0042   2847           00117             GOTO  DDR2
0043   0AA4           00118             INCF  SAYAC,F
0044   201B           00119             CALL  KARAKTER_GONDER
0045   2064           00120             CALL  GECIKME_200USN
0046   283F           00121             GOTO  DDR
                      00122           
                      00123         
Warning[207]: Found label after column 1. (DDR2)
0047                  00124         DDR2
0047   30C0           00125             MOVLW 0XC0
0048   2011           00126             CALL KOMUT_GONDER
                      00127             
0049   3041           00128             MOVLW 'A'
MPASM 5.84                    FATIHAYDIN.ASM   11-16-2019  18:03:15         PAGE  4


LOC  OBJECT CODE     LINE SOURCE TEXT
  VALUE

004A   201B           00129             CALL   KARAKTER_GONDER
                      00130             
004B   3059           00131             MOVLW 'Y'
004C   201B           00132             CALL   KARAKTER_GONDER
                      00133             
004D   3044           00134             MOVLW 'D'
004E   201B           00135             CALL   KARAKTER_GONDER
                      00136             
004F   3049           00137             MOVLW 'I'
0050   201B           00138             CALL   KARAKTER_GONDER
                      00139             
0051   304E           00140             MOVLW 'N'
0052   201B           00141             CALL   KARAKTER_GONDER
                      00142             
                      00143         
Warning[207]: Found label after column 1. (CALIS)
0053                  00144         CALIS
0053   2853           00145             GOTO CALIS
                      00146             
                      00147             
Warning[207]: Found label after column 1. (DATA_TABLE)
0054                  00148         DATA_TABLE
0054   0782           00149             ADDWF PCL,F
0055   3446           00150             RETLW 'F'
0056   3441           00151             RETLW 'A'
0057   3454           00152             RETLW 'T'
0058   3449           00153             RETLW 'I'
0059   3448           00154             RETLW 'H'
005A   1503           00155             BSF    STATUS,Z
005B   3400           00156             RETLW 0X00
                      00157             
Warning[207]: Found label after column 1. (DATA_TABLE2)
005C                  00158         DATA_TABLE2
005C   0782           00159             ADDWF PCL,F
005D   3446           00160             RETLW 'F'
005E   3441           00161             RETLW 'A'
005F   3454           00162             RETLW 'T'
0060   3449           00163             RETLW 'I'
0061   3448           00164             RETLW 'H'
0062   1503           00165             BSF    STATUS,Z
0063   3400           00166             RETLW 0X00
                      00167         
                      00168 ;****   GECIKMELERIN TAMAMI ***************************************
                      00169             
Warning[207]: Found label after column 1. (GECIKME_200USN)
0064                  00170         GECIKME_200USN                          
0064   30C8           00171             MOVLW       0xC8
0065   00A0           00172             MOVWF       GECIKME1
Warning[207]: Found label after column 1. (DNGU1)
0066                  00173         DNGU1
0066   0BA0           00174             DECFSZ      GECIKME1,1
0067   2866           00175             GOTO        DNGU1
0068   0008           00176             RETURN
MPASM 5.84                    FATIHAYDIN.ASM   11-16-2019  18:03:15         PAGE  5


LOC  OBJECT CODE     LINE SOURCE TEXT
  VALUE

                      00177         
Warning[207]: Found label after column 1. (GECIKME_5MSN)
0069                  00178         GECIKME_5MSN
0069   30E7           00179             MOVLW       0xE7
006A   00A0           00180             MOVWF       GECIKME1
006B   3004           00181             MOVLW       0x04
006C   00A1           00182             MOVWF       GECIKME2
Warning[207]: Found label after column 1. (D5_D)
006D                  00183         D5_D
006D   0BA0           00184             DECFSZ      GECIKME1, f
006E   286D           00185             GOTO        D5_D
006F   0BA1           00186             DECFSZ      GECIKME2, f
0070   286D           00187             GOTO        D5_D
0071   0008           00188             RETURN
                      00189         
Warning[207]: Found label after column 1. (GECIKME_50MSN)
0072                  00190         GECIKME_50MSN
0072   300F           00191             MOVLW       0x0F
0073   00A0           00192             MOVWF       GECIKME1
0074   3028           00193             MOVLW       0x28
0075   00A1           00194             MOVWF       GECIKME2
Warning[207]: Found label after column 1. (D50_D)
0076                  00195         D50_D
0076   0BA0           00196             DECFSZ      GECIKME1, f
0077   2876           00197             GOTO        D50_D
0078   0BA1           00198             DECFSZ      GECIKME2, f
0079   2876           00199             GOTO        D50_D
007A   0008           00200             RETURN
                      00201 
Warning[207]: Found label after column 1. (BITIR)
007B                  00202         BITIR
Warning[205]: Found directive in column 1. (END)
                      00203 END
MPASM 5.84                    FATIHAYDIN.ASM   11-16-2019  18:03:15         PAGE  6


SYMBOL TABLE
  LABEL                             VALUE 

ACKDT                             00000005
ACKEN                             00000004
ACKSTAT                           00000006
ADCON0                            0000001F
ADCON1                            0000009F
ADCS0                             00000006
ADCS1                             00000007
ADDEN                             00000003
ADFM                              00000007
ADIE                              00000006
ADIF                              00000006
ADON                              00000000
ADRESH                            0000001E
ADRESL                            0000009E
BASLA                             0000003E
BCLIE                             00000003
BCLIF                             00000003
BF                                00000000
BITIR                             0000007B
BRGH                              00000002
C                                 00000000
CALIS                             00000053
CCP1CON                           00000017
CCP1IE                            00000002
CCP1IF                            00000002
CCP1M0                            00000000
CCP1M1                            00000001
CCP1M2                            00000002
CCP1M3                            00000003
CCP1X                             00000005
CCP1Y                             00000004
CCP2CON                           0000001D
CCP2IE                            00000000
CCP2IF                            00000000
CCP2M0                            00000000
CCP2M1                            00000001
CCP2M2                            00000002
CCP2M3                            00000003
CCP2X                             00000005
CCP2Y                             00000004
CCPR1                             00000015
CCPR1H                            00000016
CCPR1L                            00000015
CCPR2                             0000001B
CCPR2H                            0000001C
CCPR2L                            0000001B
CHS0                              00000003
CHS1                              00000004
CHS2                              00000005
CKE                               00000006
CKP                               00000004
CREN                              00000004
CSRC                              00000007
MPASM 5.84                    FATIHAYDIN.ASM   11-16-2019  18:03:15         PAGE  7


SYMBOL TABLE
  LABEL                             VALUE 

D                                 00000005
D50_D                             00000076
D5_D                              0000006D
DATA_ADDRESS                      00000005
DATA_TABLE                        00000054
DATA_TABLE2                       0000005C
DC                                00000001
DDR                               0000003F
DDR2                              00000047
DNGU1                             00000066
DUSEN_KENAR                       00000002
D_A                               00000005
D_NOT_A                           00000005
EEADR                             0000010D
EEADRH                            0000010F
EECON1                            0000018C
EECON2                            0000018D
EEDATA                            0000010C
EEDATH                            0000010E
EEIE                              00000004
EEIF                              00000004
EEPGD                             00000007
F                                 00000001
FERR                              00000002
FSR                               00000004
GCEN                              00000007
GECIKME1                          00000020
GECIKME2                          00000021
GECIKME3                          00000022
GECIKME_200USN                    00000064
GECIKME_50MSN                     00000072
GECIKME_5MSN                      00000069
GIE                               00000007
GO                                00000002
GO_DONE                           00000002
GO_NOT_DONE                       00000002
I2C_DATA                          00000005
I2C_READ                          00000002
I2C_START                         00000003
I2C_STOP                          00000004
IBF                               00000007
IBOV                              00000005
INDF                              00000000
INTCON                            0000000B
INTE                              00000004
INTEDG                            00000006
INTF                              00000001
IRP                               00000007
KARAKTER_GONDER                   0000001B
KOMUT4_GONDER                     00000008
KOMUT_GONDER                      00000011
LCD_AYARLA                        00000024
LCD_E                             00000005
MPASM 5.84                    FATIHAYDIN.ASM   11-16-2019  18:03:15         PAGE  8


SYMBOL TABLE
  LABEL                             VALUE 

LCD_PORT                          00000006
LCD_RS                            00000004
LCD_TEMP                          00000025
LCD_TRIS                          00000086
NOT_A                             00000005
NOT_ADDRESS                       00000005
NOT_BO                            00000000
NOT_BOR                           00000000
NOT_DONE                          00000002
NOT_PD                            00000003
NOT_POR                           00000001
NOT_RBPU                          00000007
NOT_RC8                           00000006
NOT_T1SYNC                        00000002
NOT_TO                            00000004
NOT_TX8                           00000006
NOT_W                             00000002
NOT_WRITE                         00000002
OBF                               00000006
OERR                              00000001
OPTION_REG                        00000081
P                                 00000004
PCFG0                             00000000
PCFG1                             00000001
PCFG2                             00000002
PCFG3                             00000003
PCL                               00000002
PCLATH                            0000000A
PCON                              0000008E
PEIE                              00000006
PEN                               00000002
PIE1                              0000008C
PIE2                              0000008D
PIR1                              0000000C
PIR2                              0000000D
PORTA                             00000005
PORTB                             00000006
PORTC                             00000007
PORTD                             00000008
PORTE                             00000009
PR2                               00000092
PS0                               00000000
PS1                               00000001
PS2                               00000002
PSA                               00000003
PSPIE                             00000007
PSPIF                             00000007
PSPMODE                           00000004
R                                 00000002
RA0                               00000000
RA1                               00000001
RA2                               00000002
RA3                               00000003
MPASM 5.84                    FATIHAYDIN.ASM   11-16-2019  18:03:15         PAGE  9


SYMBOL TABLE
  LABEL                             VALUE 

RA4                               00000004
RA5                               00000005
RB0                               00000000
RB1                               00000001
RB2                               00000002
RB3                               00000003
RB4                               00000004
RB5                               00000005
RB6                               00000006
RB7                               00000007
RBIE                              00000003
RBIF                              00000000
RC0                               00000000
RC1                               00000001
RC2                               00000002
RC3                               00000003
RC4                               00000004
RC5                               00000005
RC6                               00000006
RC7                               00000007
RC8_9                             00000006
RC9                               00000006
RCD8                              00000000
RCEN                              00000003
RCIE                              00000005
RCIF                              00000005
RCREG                             0000001A
RCSTA                             00000018
RD                                00000000
RD0                               00000000
RD1                               00000001
RD2                               00000002
RD3                               00000003
RD4                               00000004
RD5                               00000005
RD6                               00000006
RD7                               00000007
RE0                               00000000
RE1                               00000001
RE2                               00000002
READ_WRITE                        00000002
RP0                               00000005
RP1                               00000006
RSEN                              00000001
RX9                               00000006
RX9D                              00000000
R_NOT_W                           00000002
R_W                               00000002
S                                 00000003
SAYAC                             00000024
SEN                               00000000
SMP                               00000007
SPBRG                             00000099
MPASM 5.84                    FATIHAYDIN.ASM   11-16-2019  18:03:15         PAGE 10


SYMBOL TABLE
  LABEL                             VALUE 

SPEN                              00000007
SREN                              00000005
SSPADD                            00000093
SSPBUF                            00000013
SSPCON                            00000014
SSPCON2                           00000091
SSPEN                             00000005
SSPIE                             00000003
SSPIF                             00000003
SSPM0                             00000000
SSPM1                             00000001
SSPM2                             00000002
SSPM3                             00000003
SSPOV                             00000006
SSPSTAT                           00000094
STATUS                            00000003
SYNC                              00000004
T0CS                              00000005
T0IE                              00000005
T0IF                              00000002
T0SE                              00000004
T1CKPS0                           00000004
T1CKPS1                           00000005
T1CON                             00000010
T1INSYNC                          00000002
T1OSCEN                           00000003
T1SYNC                            00000002
T2CKPS0                           00000000
T2CKPS1                           00000001
T2CON                             00000012
TMR0                              00000001
TMR0IE                            00000005
TMR0IF                            00000002
TMR1                              0000000E
TMR1CS                            00000001
TMR1H                             0000000F
TMR1IE                            00000000
TMR1IF                            00000000
TMR1L                             0000000E
TMR1ON                            00000000
TMR2                              00000011
TMR2IE                            00000001
TMR2IF                            00000001
TMR2ON                            00000002
TOUTPS0                           00000003
TOUTPS1                           00000004
TOUTPS2                           00000005
TOUTPS3                           00000006
TRISA                             00000085
TRISA0                            00000000
TRISA1                            00000001
TRISA2                            00000002
TRISA3                            00000003
MPASM 5.84                    FATIHAYDIN.ASM   11-16-2019  18:03:15         PAGE 11


SYMBOL TABLE
  LABEL                             VALUE 

TRISA4                            00000004
TRISA5                            00000005
TRISB                             00000086
TRISB0                            00000000
TRISB1                            00000001
TRISB2                            00000002
TRISB3                            00000003
TRISB4                            00000004
TRISB5                            00000005
TRISB6                            00000006
TRISB7                            00000007
TRISC                             00000087
TRISC0                            00000000
TRISC1                            00000001
TRISC2                            00000002
TRISC3                            00000003
TRISC4                            00000004
TRISC5                            00000005
TRISC6                            00000006
TRISC7                            00000007
TRISD                             00000088
TRISD0                            00000000
TRISD1                            00000001
TRISD2                            00000002
TRISD3                            00000003
TRISD4                            00000004
TRISD5                            00000005
TRISD6                            00000006
TRISD7                            00000007
TRISE                             00000089
TRISE0                            00000000
TRISE1                            00000001
TRISE2                            00000002
TRMT                              00000001
TX8_9                             00000006
TX9                               00000006
TX9D                              00000000
TXD8                              00000000
TXEN                              00000005
TXIE                              00000004
TXIF                              00000004
TXREG                             00000019
TXSTA                             00000098
UA                                00000001
VERI4                             00000023
W                                 00000000
WCOL                              00000007
WR                                00000001
WREN                              00000002
WRERR                             00000003
Z                                 00000002
_BODEN_OFF                        00003FBF
_BODEN_ON                         00003FFF
MPASM 5.84                    FATIHAYDIN.ASM   11-16-2019  18:03:15         PAGE 12


SYMBOL TABLE
  LABEL                             VALUE 

_BOREN_OFF                        00003FBF
_BOREN_ON                         00003FFF
_CONFIG                           00002007
_CPD_OFF                          00003FFF
_CPD_ON                           00003EFF
_CP_ALL                           00000FCF
_CP_HALF                          00001FDF
_CP_OFF                           00003FFF
_CP_UPPER_256                     00002FEF
_DEBUG_OFF                        00003FFF
_DEBUG_ON                         000037FF
_DEVID1                           00002006
_FOSC_EXTRC                       00003FFF
_FOSC_HS                          00003FFE
_FOSC_LP                          00003FFC
_FOSC_XT                          00003FFD
_HS_OSC                           00003FFE
_IDLOC0                           00002000
_IDLOC1                           00002001
_IDLOC2                           00002002
_IDLOC3                           00002003
_LP_OSC                           00003FFC
_LVP_OFF                          00003F7F
_LVP_ON                           00003FFF
_PWRTE_OFF                        00003FFF
_PWRTE_ON                         00003FF7
_RC_OSC                           00003FFF
_WDTE_OFF                         00003FFB
_WDTE_ON                          00003FFF
_WDT_OFF                          00003FFB
_WDT_ON                           00003FFF
_WRT_ENABLE_OFF                   00003DFF
_WRT_ENABLE_ON                    00003FFF
_WRT_OFF                          00003DFF
_WRT_ON                           00003FFF
_XT_OSC                           00003FFD
__16F877A                         00000001


MEMORY USAGE MAP ('X' = Used,  '-' = Unused)

0000 : XXXXXXXXXXXXXXXX XXXXXXXXXXXXXXXX XXXXXXXXXXXXXXXX XXXXXXXXXXXXXXXX
0040 : XXXXXXXXXXXXXXXX XXXXXXXXXXXXXXXX XXXXXXXXXXXXXXXX XXXXXXXXXXX-----

All other memory blocks unused.

Program Memory Words Used:   123
Program Memory Words Free:  8069


MPASM 5.84                    FATIHAYDIN.ASM   11-16-2019  18:03:15         PAGE 13





Errors   :     0
Warnings :    29 reported,     0 suppressed
Messages :     2 reported,     0 suppressed

